target datalayout = "e-m:e-p270:32:32-p271:32:32-p272:64:64-i64:64-i128:128-f80:128-n8:16:32:64-S128"
target triple = "x86_64-pc-linux-gnu"

%struct.AVFilterContext = type { ptr, ptr, ptr, ptr, ptr, i32, ptr, ptr, i32, ptr, ptr, i32, i32, ptr, ptr, ptr, ptr, i32, ptr, i32, i32 }
%struct.AudioFadeContext = type { ptr, i32, i32, i32, i64, i64, i64, i64, double, double, i32, [2 x i32], i32, i64, ptr, ptr, ptr }
%struct.AVRational = type { i32, i32 }
%struct.AVFrame = type { [8 x ptr], [8 x i32], ptr, i32, i32, i32, i32, i32, %struct.AVRational, i64, i64, %struct.AVRational, i32, ptr, i32, i32, [8 x ptr], ptr, i32, ptr, i32, i32, i32, i32, i32, i32, i32, i64, ptr, i32, ptr, ptr, i64, i64, i64, i64, ptr, %struct.AVChannelLayout, i64 }
%struct.AVChannelLayout = type { i32, i32, %union.anon.1, ptr }
%union.anon.1 = type { i64 }
%struct.AVFilterLink = type { ptr, ptr, ptr, ptr, i32, i32, i32, i32, %struct.AVRational, i32, i32, i32, %struct.AVChannelLayout, %struct.AVRational, ptr, i32, %struct.AVFilterFormatsConfig, %struct.AVFilterFormatsConfig }
%struct.AVFilterFormatsConfig = type { ptr, ptr, ptr, ptr, ptr }

; Function Attrs: nounwind uwtable
define internal i32 @filter_frame(ptr noundef %0, ptr noundef %1) #1 {
  %3 = alloca i32, align 4
  %4 = alloca ptr, align 8
  %5 = alloca ptr, align 8
  %6 = alloca ptr, align 8
  %7 = alloca ptr, align 8
  %8 = alloca i32, align 4
  %9 = alloca ptr, align 8
  %10 = alloca i64, align 8
  %11 = alloca %struct.AVRational, align 4
  %12 = alloca i32, align 4
  %13 = alloca i64, align 8
  store ptr %0, ptr %4, align 8, !tbaa !32
  store ptr %1, ptr %5, align 8, !tbaa !34
  call void @llvm.lifetime.start.p0(i64 8, ptr %6) #10
  %14 = load ptr, ptr %4, align 8, !tbaa !32
  %15 = getelementptr inbounds nuw %struct.AVFilterLink, ptr %14, i32 0, i32 2
  %16 = load ptr, ptr %15, align 8, !tbaa !67
  %17 = getelementptr inbounds nuw %struct.AVFilterContext, ptr %16, i32 0, i32 9
  %18 = load ptr, ptr %17, align 8, !tbaa !9
  store ptr %18, ptr %6, align 8, !tbaa !22
  call void @llvm.lifetime.start.p0(i64 8, ptr %7) #10
  %19 = load ptr, ptr %4, align 8, !tbaa !32
  %20 = getelementptr inbounds nuw %struct.AVFilterLink, ptr %19, i32 0, i32 2
  %21 = load ptr, ptr %20, align 8, !tbaa !67
  %22 = getelementptr inbounds nuw %struct.AVFilterContext, ptr %21, i32 0, i32 7
  %23 = load ptr, ptr %22, align 8, !tbaa !31
  %24 = getelementptr inbounds ptr, ptr %23, i64 0
  %25 = load ptr, ptr %24, align 8, !tbaa !32
  store ptr %25, ptr %7, align 8, !tbaa !32
  call void @llvm.lifetime.start.p0(i64 4, ptr %8) #10
  %26 = load ptr, ptr %5, align 8, !tbaa !34
  %27 = getelementptr inbounds nuw %struct.AVFrame, ptr %26, i32 0, i32 5
  %28 = load i32, ptr %27, align 8, !tbaa !50
  store i32 %28, ptr %8, align 4, !tbaa !30
  call void @llvm.lifetime.start.p0(i64 8, ptr %9) #10
  call void @llvm.lifetime.start.p0(i64 8, ptr %10) #10
  %29 = load ptr, ptr %5, align 8, !tbaa !34
  %30 = getelementptr inbounds nuw %struct.AVFrame, ptr %29, i32 0, i32 9
  %31 = load i64, ptr %30, align 8, !tbaa !42
  %32 = load ptr, ptr %4, align 8, !tbaa !32
  %33 = getelementptr inbounds nuw %struct.AVFilterLink, ptr %32, i32 0, i32 13
  %34 = getelementptr inbounds nuw %struct.AVRational, ptr %11, i32 0, i32 0
  store i32 1, ptr %34, align 4, !tbaa !51
  %35 = getelementptr inbounds nuw %struct.AVRational, ptr %11, i32 0, i32 1
  %36 = load ptr, ptr %4, align 8, !tbaa !32
  %37 = getelementptr inbounds nuw %struct.AVFilterLink, ptr %36, i32 0, i32 11
  %38 = load i32, ptr %37, align 8, !tbaa !52
  store i32 %38, ptr %35, align 4, !tbaa !57
  %39 = load i64, ptr %33, align 8
  %40 = load i64, ptr %11, align 4
  %41 = call i64 @av_rescale_q(i64 noundef %31, i64 %39, i64 %40) #11
  store i64 %41, ptr %10, align 8, !tbaa !58
  %42 = load ptr, ptr %6, align 8, !tbaa !22
  %43 = getelementptr inbounds nuw %struct.AudioFadeContext, ptr %42, i32 0, i32 9
  %44 = load double, ptr %43, align 8, !tbaa !68
  %45 = fcmp nsz oeq double %44, 1.000000e+00
  br i1 %45, label %46, label %79

46:                                               ; preds = %2
  %47 = load ptr, ptr %6, align 8, !tbaa !22
  %48 = getelementptr inbounds nuw %struct.AudioFadeContext, ptr %47, i32 0, i32 1
  %49 = load i32, ptr %48, align 8, !tbaa !69
  %50 = icmp ne i32 %49, 0
  br i1 %50, label %61, label %51

51:                                               ; preds = %46
  %52 = load ptr, ptr %6, align 8, !tbaa !22
  %53 = getelementptr inbounds nuw %struct.AudioFadeContext, ptr %52, i32 0, i32 5
  %54 = load i64, ptr %53, align 8, !tbaa !28
  %55 = load ptr, ptr %6, align 8, !tbaa !22
  %56 = getelementptr inbounds nuw %struct.AudioFadeContext, ptr %55, i32 0, i32 4
  %57 = load i64, ptr %56, align 8, !tbaa !24
  %58 = add nsw i64 %54, %57
  %59 = load i64, ptr %10, align 8, !tbaa !58
  %60 = icmp slt i64 %58, %59
  br i1 %60, label %75, label %61

61:                                               ; preds = %51, %46
  %62 = load ptr, ptr %6, align 8, !tbaa !22
  %63 = getelementptr inbounds nuw %struct.AudioFadeContext, ptr %62, i32 0, i32 1
  %64 = load i32, ptr %63, align 8, !tbaa !69
  %65 = icmp ne i32 %64, 0
  br i1 %65, label %66, label %79

66:                                               ; preds = %61
  %67 = load i64, ptr %10, align 8, !tbaa !58
  %68 = load i32, ptr %8, align 4, !tbaa !30
  %69 = sext i32 %68 to i64
  %70 = add nsw i64 %67, %69
  %71 = load ptr, ptr %6, align 8, !tbaa !22
  %72 = getelementptr inbounds nuw %struct.AudioFadeContext, ptr %71, i32 0, i32 5
  %73 = load i64, ptr %72, align 8, !tbaa !28
  %74 = icmp slt i64 %70, %73
  br i1 %74, label %75, label %79

75:                                               ; preds = %66, %51
  %76 = load ptr, ptr %7, align 8, !tbaa !32
  %77 = load ptr, ptr %5, align 8, !tbaa !34
  %78 = call i32 @ff_filter_frame(ptr noundef %76, ptr noundef %77)
  store i32 %78, ptr %3, align 4
  store i32 1, ptr %12, align 4
  br label %273

79:                                               ; preds = %66, %61, %2
  %80 = load ptr, ptr %5, align 8, !tbaa !34
  %81 = call i32 @av_frame_is_writable(ptr noundef %80)
  %82 = icmp ne i32 %81, 0
  br i1 %82, label %83, label %85

83:                                               ; preds = %79
  %84 = load ptr, ptr %5, align 8, !tbaa !34
  store ptr %84, ptr %9, align 8, !tbaa !34
  br label %96

85:                                               ; preds = %79
  %86 = load ptr, ptr %7, align 8, !tbaa !32
  %87 = load i32, ptr %8, align 4, !tbaa !30
  %88 = call ptr @ff_get_audio_buffer(ptr noundef %86, i32 noundef %87)
  store ptr %88, ptr %9, align 8, !tbaa !34
  %89 = load ptr, ptr %9, align 8, !tbaa !34
  %90 = icmp ne ptr %89, null
  br i1 %90, label %92, label %91

91:                                               ; preds = %85
  store i32 -12, ptr %3, align 4
  store i32 1, ptr %12, align 4
  br label %273

92:                                               ; preds = %85
  %93 = load ptr, ptr %9, align 8, !tbaa !34
  %94 = load ptr, ptr %5, align 8, !tbaa !34
  %95 = call i32 @av_frame_copy_props(ptr noundef %93, ptr noundef %94)
  br label %96

96:                                               ; preds = %92, %83
  %97 = load ptr, ptr %6, align 8, !tbaa !22
  %98 = getelementptr inbounds nuw %struct.AudioFadeContext, ptr %97, i32 0, i32 1
  %99 = load i32, ptr %98, align 8, !tbaa !69
  %100 = icmp ne i32 %99, 0
  br i1 %100, label %110, label %101

101:                                              ; preds = %96
  %102 = load i64, ptr %10, align 8, !tbaa !58
  %103 = load i32, ptr %8, align 4, !tbaa !30
  %104 = sext i32 %103 to i64
  %105 = add nsw i64 %102, %104
  %106 = load ptr, ptr %6, align 8, !tbaa !22
  %107 = getelementptr inbounds nuw %struct.AudioFadeContext, ptr %106, i32 0, i32 5
  %108 = load i64, ptr %107, align 8, !tbaa !28
  %109 = icmp slt i64 %105, %108
  br i1 %109, label %125, label %110

110:                                              ; preds = %101, %96
  %111 = load ptr, ptr %6, align 8, !tbaa !22
  %112 = getelementptr inbounds nuw %struct.AudioFadeContext, ptr %111, i32 0, i32 1
  %113 = load i32, ptr %112, align 8, !tbaa !69
  %114 = icmp ne i32 %113, 0
  br i1 %114, label %115, label %162

115:                                              ; preds = %110
  %116 = load ptr, ptr %6, align 8, !tbaa !22
  %117 = getelementptr inbounds nuw %struct.AudioFadeContext, ptr %116, i32 0, i32 5
  %118 = load i64, ptr %117, align 8, !tbaa !28
  %119 = load ptr, ptr %6, align 8, !tbaa !22
  %120 = getelementptr inbounds nuw %struct.AudioFadeContext, ptr %119, i32 0, i32 4
  %121 = load i64, ptr %120, align 8, !tbaa !24
  %122 = add nsw i64 %118, %121
  %123 = load i64, ptr %10, align 8, !tbaa !58
  %124 = icmp slt i64 %122, %123
  br i1 %124, label %125, label %162

125:                                              ; preds = %115, %101
  %126 = load ptr, ptr %6, align 8, !tbaa !22
  %127 = getelementptr inbounds nuw %struct.AudioFadeContext, ptr %126, i32 0, i32 8
  %128 = load double, ptr %127, align 8, !tbaa !70
  %129 = fcmp nsz oeq double %128, 0.000000e+00
  br i1 %129, label %130, label %143

130:                                              ; preds = %125
  %131 = load ptr, ptr %9, align 8, !tbaa !34
  %132 = getelementptr inbounds nuw %struct.AVFrame, ptr %131, i32 0, i32 2
  %133 = load ptr, ptr %132, align 8, !tbaa !61
  %134 = load i32, ptr %8, align 4, !tbaa !30
  %135 = load ptr, ptr %9, align 8, !tbaa !34
  %136 = getelementptr inbounds nuw %struct.AVFrame, ptr %135, i32 0, i32 37
  %137 = getelementptr inbounds nuw %struct.AVChannelLayout, ptr %136, i32 0, i32 1
  %138 = load i32, ptr %137, align 4, !tbaa !62
  %139 = load ptr, ptr %9, align 8, !tbaa !34
  %140 = getelementptr inbounds nuw %struct.AVFrame, ptr %139, i32 0, i32 6
  %141 = load i32, ptr %140, align 4, !tbaa !71
  %142 = call i32 @av_samples_set_silence(ptr noundef %133, i32 noundef 0, i32 noundef %134, i32 noundef %138, i32 noundef %141)
  br label %161

143:                                              ; preds = %125
  %144 = load ptr, ptr %6, align 8, !tbaa !22
  %145 = getelementptr inbounds nuw %struct.AudioFadeContext, ptr %144, i32 0, i32 15
  %146 = load ptr, ptr %145, align 8, !tbaa !72
  %147 = load ptr, ptr %9, align 8, !tbaa !34
  %148 = getelementptr inbounds nuw %struct.AVFrame, ptr %147, i32 0, i32 2
  %149 = load ptr, ptr %148, align 8, !tbaa !61
  %150 = load ptr, ptr %5, align 8, !tbaa !34
  %151 = getelementptr inbounds nuw %struct.AVFrame, ptr %150, i32 0, i32 2
  %152 = load ptr, ptr %151, align 8, !tbaa !61
  %153 = load i32, ptr %8, align 4, !tbaa !30
  %154 = load ptr, ptr %5, align 8, !tbaa !34
  %155 = getelementptr inbounds nuw %struct.AVFrame, ptr %154, i32 0, i32 37
  %156 = getelementptr inbounds nuw %struct.AVChannelLayout, ptr %155, i32 0, i32 1
  %157 = load i32, ptr %156, align 4, !tbaa !62
  %158 = load ptr, ptr %6, align 8, !tbaa !22
  %159 = getelementptr inbounds nuw %struct.AudioFadeContext, ptr %158, i32 0, i32 8
  %160 = load double, ptr %159, align 8, !tbaa !70
  call void %146(ptr noundef %149, ptr noundef %152, i32 noundef %153, i32 noundef %157, double noundef %160)
  br label %161

161:                                              ; preds = %143, %130
  br label %264

162:                                              ; preds = %115, %110
  %163 = load ptr, ptr %6, align 8, !tbaa !22
  %164 = getelementptr inbounds nuw %struct.AudioFadeContext, ptr %163, i32 0, i32 1
  %165 = load i32, ptr %164, align 8, !tbaa !69
  %166 = icmp ne i32 %165, 0
  br i1 %166, label %167, label %176

167:                                              ; preds = %162
  %168 = load i64, ptr %10, align 8, !tbaa !58
  %169 = load i32, ptr %8, align 4, !tbaa !30
  %170 = sext i32 %169 to i64
  %171 = add nsw i64 %168, %170
  %172 = load ptr, ptr %6, align 8, !tbaa !22
  %173 = getelementptr inbounds nuw %struct.AudioFadeContext, ptr %172, i32 0, i32 5
  %174 = load i64, ptr %173, align 8, !tbaa !28
  %175 = icmp slt i64 %171, %174
  br i1 %175, label %191, label %176

176:                                              ; preds = %167, %162
  %177 = load ptr, ptr %6, align 8, !tbaa !22
  %178 = getelementptr inbounds nuw %struct.AudioFadeContext, ptr %177, i32 0, i32 1
  %179 = load i32, ptr %178, align 8, !tbaa !69
  %180 = icmp ne i32 %179, 0
  br i1 %180, label %209, label %181

181:                                              ; preds = %176
  %182 = load ptr, ptr %6, align 8, !tbaa !22
  %183 = getelementptr inbounds nuw %struct.AudioFadeContext, ptr %182, i32 0, i32 5
  %184 = load i64, ptr %183, align 8, !tbaa !28
  %185 = load ptr, ptr %6, align 8, !tbaa !22
  %186 = getelementptr inbounds nuw %struct.AudioFadeContext, ptr %185, i32 0, i32 4
  %187 = load i64, ptr %186, align 8, !tbaa !24
  %188 = add nsw i64 %184, %187
  %189 = load i64, ptr %10, align 8, !tbaa !58
  %190 = icmp slt i64 %188, %189
  br i1 %190, label %191, label %209

191:                                              ; preds = %181, %167
  %192 = load ptr, ptr %6, align 8, !tbaa !22
  %193 = getelementptr inbounds nuw %struct.AudioFadeContext, ptr %192, i32 0, i32 15
  %194 = load ptr, ptr %193, align 8, !tbaa !72
  %195 = load ptr, ptr %9, align 8, !tbaa !34
  %196 = getelementptr inbounds nuw %struct.AVFrame, ptr %195, i32 0, i32 2
  %197 = load ptr, ptr %196, align 8, !tbaa !61
  %198 = load ptr, ptr %5, align 8, !tbaa !34
  %199 = getelementptr inbounds nuw %struct.AVFrame, ptr %198, i32 0, i32 2
  %200 = load ptr, ptr %199, align 8, !tbaa !61
  %201 = load i32, ptr %8, align 4, !tbaa !30
  %202 = load ptr, ptr %5, align 8, !tbaa !34
  %203 = getelementptr inbounds nuw %struct.AVFrame, ptr %202, i32 0, i32 37
  %204 = getelementptr inbounds nuw %struct.AVChannelLayout, ptr %203, i32 0, i32 1
  %205 = load i32, ptr %204, align 4, !tbaa !62
  %206 = load ptr, ptr %6, align 8, !tbaa !22
  %207 = getelementptr inbounds nuw %struct.AudioFadeContext, ptr %206, i32 0, i32 9
  %208 = load double, ptr %207, align 8, !tbaa !68
  call void %194(ptr noundef %197, ptr noundef %200, i32 noundef %201, i32 noundef %205, double noundef %208)
  br label %263

209:                                              ; preds = %181, %176
  call void @llvm.lifetime.start.p0(i64 8, ptr %13) #10
  %210 = load ptr, ptr %6, align 8, !tbaa !22
  %211 = getelementptr inbounds nuw %struct.AudioFadeContext, ptr %210, i32 0, i32 1
  %212 = load i32, ptr %211, align 8, !tbaa !69
  %213 = icmp ne i32 %212, 0
  br i1 %213, label %220, label %214

214:                                              ; preds = %209
  %215 = load i64, ptr %10, align 8, !tbaa !58
  %216 = load ptr, ptr %6, align 8, !tbaa !22
  %217 = getelementptr inbounds nuw %struct.AudioFadeContext, ptr %216, i32 0, i32 5
  %218 = load i64, ptr %217, align 8, !tbaa !28
  %219 = sub nsw i64 %215, %218
  store i64 %219, ptr %13, align 8, !tbaa !58
  br label %230

220:                                              ; preds = %209
  %221 = load ptr, ptr %6, align 8, !tbaa !22
  %222 = getelementptr inbounds nuw %struct.AudioFadeContext, ptr %221, i32 0, i32 5
  %223 = load i64, ptr %222, align 8, !tbaa !28
  %224 = load ptr, ptr %6, align 8, !tbaa !22
  %225 = getelementptr inbounds nuw %struct.AudioFadeContext, ptr %224, i32 0, i32 4
  %226 = load i64, ptr %225, align 8, !tbaa !24
  %227 = add nsw i64 %223, %226
  %228 = load i64, ptr %10, align 8, !tbaa !58
  %229 = sub nsw i64 %227, %228
  store i64 %229, ptr %13, align 8, !tbaa !58
  br label %230

230:                                              ; preds = %220, %214
  %231 = load ptr, ptr %6, align 8, !tbaa !22
  %232 = getelementptr inbounds nuw %struct.AudioFadeContext, ptr %231, i32 0, i32 14
  %233 = load ptr, ptr %232, align 8, !tbaa !65
  %234 = load ptr, ptr %9, align 8, !tbaa !34
  %235 = getelementptr inbounds nuw %struct.AVFrame, ptr %234, i32 0, i32 2
  %236 = load ptr, ptr %235, align 8, !tbaa !61
  %237 = load ptr, ptr %5, align 8, !tbaa !34
  %238 = getelementptr inbounds nuw %struct.AVFrame, ptr %237, i32 0, i32 2
  %239 = load ptr, ptr %238, align 8, !tbaa !61
  %240 = load i32, ptr %8, align 4, !tbaa !30
  %241 = load ptr, ptr %5, align 8, !tbaa !34
  %242 = getelementptr inbounds nuw %struct.AVFrame, ptr %241, i32 0, i32 37
  %243 = getelementptr inbounds nuw %struct.AVChannelLayout, ptr %242, i32 0, i32 1
  %244 = load i32, ptr %243, align 4, !tbaa !62
  %245 = load ptr, ptr %6, align 8, !tbaa !22
  %246 = getelementptr inbounds nuw %struct.AudioFadeContext, ptr %245, i32 0, i32 1
  %247 = load i32, ptr %246, align 8, !tbaa !69
  %248 = icmp ne i32 %247, 0
  %249 = select i1 %248, i32 -1, i32 1
  %250 = load i64, ptr %13, align 8, !tbaa !58
  %251 = load ptr, ptr %6, align 8, !tbaa !22
  %252 = getelementptr inbounds nuw %struct.AudioFadeContext, ptr %251, i32 0, i32 4
  %253 = load i64, ptr %252, align 8, !tbaa !24
  %254 = load ptr, ptr %6, align 8, !tbaa !22
  %255 = getelementptr inbounds nuw %struct.AudioFadeContext, ptr %254, i32 0, i32 2
  %256 = load i32, ptr %255, align 4, !tbaa !63
  %257 = load ptr, ptr %6, align 8, !tbaa !22
  %258 = getelementptr inbounds nuw %struct.AudioFadeContext, ptr %257, i32 0, i32 8
  %259 = load double, ptr %258, align 8, !tbaa !70
  %260 = load ptr, ptr %6, align 8, !tbaa !22
  %261 = getelementptr inbounds nuw %struct.AudioFadeContext, ptr %260, i32 0, i32 9
  %262 = load double, ptr %261, align 8, !tbaa !68
  call void %233(ptr noundef %236, ptr noundef %239, i32 noundef %240, i32 noundef %244, i32 noundef %249, i64 noundef %250, i64 noundef %253, i32 noundef %256, double noundef %259, double noundef %262)
  call void @llvm.lifetime.end.p0(i64 8, ptr %13) #10
  br label %263

263:                                              ; preds = %230, %191
  br label %264

264:                                              ; preds = %263, %161
  %265 = load ptr, ptr %5, align 8, !tbaa !34
  %266 = load ptr, ptr %9, align 8, !tbaa !34
  %267 = icmp ne ptr %265, %266
  br i1 %267, label %268, label %269

268:                                              ; preds = %264
  call void @av_frame_free(ptr noundef %5)
  br label %269

269:                                              ; preds = %268, %264
  %270 = load ptr, ptr %7, align 8, !tbaa !32
  %271 = load ptr, ptr %9, align 8, !tbaa !34
  %272 = call i32 @ff_filter_frame(ptr noundef %270, ptr noundef %271)
  store i32 %272, ptr %3, align 4
  store i32 1, ptr %12, align 4
  br label %273

273:                                              ; preds = %269, %91, %75
  call void @llvm.lifetime.end.p0(i64 8, ptr %10) #10
  call void @llvm.lifetime.end.p0(i64 8, ptr %9) #10
  call void @llvm.lifetime.end.p0(i64 4, ptr %8) #10
  call void @llvm.lifetime.end.p0(i64 8, ptr %7) #10
  call void @llvm.lifetime.end.p0(i64 8, ptr %6) #10
  %274 = load i32, ptr %3, align 4
  ret i32 %274
}