; Function Attrs: nounwind uwtable
define internal i32 @filter_frame(ptr noundef readonly captures(none) %0, ptr noundef %1) #1 {
  %3 = alloca ptr, align 8
  store ptr %1, ptr %3, align 8, !tbaa !43
  %4 = getelementptr inbounds nuw i8, ptr %0, i64 16
  %5 = load ptr, ptr %4, align 8, !tbaa !66
  %6 = getelementptr inbounds nuw i8, ptr %5, i64 72
  %7 = load ptr, ptr %6, align 8, !tbaa !4
  %8 = getelementptr inbounds nuw i8, ptr %5, i64 56
  %9 = load ptr, ptr %8, align 8, !tbaa !25
  %10 = load ptr, ptr %9, align 8, !tbaa !26
  %11 = getelementptr inbounds nuw i8, ptr %1, i64 112
  %12 = load i32, ptr %11, align 8, !tbaa !57
  %13 = getelementptr inbounds nuw i8, ptr %1, i64 136
  %14 = load i64, ptr %13, align 8, !tbaa !52
  %15 = getelementptr inbounds nuw i8, ptr %0, i64 96
  %16 = getelementptr inbounds nuw i8, ptr %0, i64 64
  %17 = load i32, ptr %16, align 8, !tbaa !41
  %18 = load i64, ptr %15, align 8
  %.sroa.2.0.insert.ext = zext i32 %17 to i64
  %.sroa.2.0.insert.shift = shl nuw i64 %.sroa.2.0.insert.ext, 32
  %.sroa.0.0.insert.insert = or disjoint i64 %.sroa.2.0.insert.shift, 1
  %19 = tail call i64 @av_rescale_q(i64 noundef %14, i64 %18, i64 %.sroa.0.0.insert.insert) #12
  %20 = getelementptr inbounds nuw i8, ptr %7, i64 64
  %21 = load double, ptr %20, align 8, !tbaa !67
  %22 = fcmp nsz oeq double %21, 1.000000e+00
  br i1 %22, label %23, label %.thread

23:                                               ; preds = %2
  %24 = getelementptr inbounds nuw i8, ptr %7, i64 8
  %25 = load i32, ptr %24, align 8, !tbaa !68
  %.not = icmp eq i32 %25, 0
  br i1 %.not, label %26, label %33

26:                                               ; preds = %23
  %27 = getelementptr inbounds nuw i8, ptr %7, i64 32
  %28 = load i64, ptr %27, align 8, !tbaa !24
  %29 = getelementptr inbounds nuw i8, ptr %7, i64 24
  %30 = load i64, ptr %29, align 8, !tbaa !20
  %31 = add nsw i64 %30, %28
  %32 = icmp slt i64 %31, %19
  br i1 %32, label %39, label %.thread

33:                                               ; preds = %23
  %34 = sext i32 %12 to i64
  %35 = add nsw i64 %19, %34
  %36 = getelementptr inbounds nuw i8, ptr %7, i64 32
  %37 = load i64, ptr %36, align 8, !tbaa !24
  %38 = icmp slt i64 %35, %37
  br i1 %38, label %39, label %.thread

39:                                               ; preds = %33, %26
  %40 = tail call i32 @ff_filter_frame(ptr noundef %10, ptr noundef nonnull %1) #11
  br label %127

.thread:                                          ; preds = %26, %33, %2
  %41 = tail call i32 @av_frame_is_writable(ptr noundef nonnull %1) #11
  %.not70 = icmp eq i32 %41, 0
  br i1 %.not70, label %42, label %46

42:                                               ; preds = %.thread
  %43 = tail call ptr @ff_get_audio_buffer(ptr noundef %10, i32 noundef %12) #11
  %.not71 = icmp eq ptr %43, null
  br i1 %.not71, label %127, label %44

44:                                               ; preds = %42
  %45 = tail call i32 @av_frame_copy_props(ptr noundef nonnull %43, ptr noundef nonnull %1) #11
  br label %46

46:                                               ; preds = %.thread, %44
  %.066 = phi ptr [ %43, %44 ], [ %1, %.thread ]
  %47 = getelementptr inbounds nuw i8, ptr %7, i64 8
  %48 = load i32, ptr %47, align 8, !tbaa !68
  %.not72 = icmp eq i32 %48, 0
  br i1 %.not72, label %49, label %55

49:                                               ; preds = %46
  %50 = sext i32 %12 to i64
  %51 = add nsw i64 %19, %50
  %52 = getelementptr inbounds nuw i8, ptr %7, i64 32
  %53 = load i64, ptr %52, align 8, !tbaa !24
  %54 = icmp slt i64 %51, %53
  br i1 %54, label %62, label %87

55:                                               ; preds = %46
  %56 = getelementptr inbounds nuw i8, ptr %7, i64 32
  %57 = load i64, ptr %56, align 8, !tbaa !24
  %58 = getelementptr inbounds nuw i8, ptr %7, i64 24
  %59 = load i64, ptr %58, align 8, !tbaa !20
  %60 = add nsw i64 %59, %57
  %61 = icmp slt i64 %60, %19
  br i1 %61, label %62, label %83

62:                                               ; preds = %55, %49
  %63 = getelementptr inbounds nuw i8, ptr %7, i64 56
  %64 = load double, ptr %63, align 8, !tbaa !69
  %65 = fcmp nsz oeq double %64, 0.000000e+00
  br i1 %65, label %66, label %74

66:                                               ; preds = %62
  %67 = getelementptr inbounds nuw i8, ptr %.066, i64 96
  %68 = load ptr, ptr %67, align 8, !tbaa !61
  %69 = getelementptr inbounds nuw i8, ptr %.066, i64 388
  %70 = load i32, ptr %69, align 4, !tbaa !62
  %71 = getelementptr inbounds nuw i8, ptr %.066, i64 116
  %72 = load i32, ptr %71, align 4, !tbaa !70
  %73 = tail call i32 @av_samples_set_silence(ptr noundef %68, i32 noundef 0, i32 noundef %12, i32 noundef %70, i32 noundef %72) #11
  br label %123

74:                                               ; preds = %62
  %75 = getelementptr inbounds nuw i8, ptr %7, i64 104
  %76 = load ptr, ptr %75, align 8, !tbaa !39
  %77 = getelementptr inbounds nuw i8, ptr %.066, i64 96
  %78 = load ptr, ptr %77, align 8, !tbaa !61
  %79 = getelementptr inbounds nuw i8, ptr %1, i64 96
  %80 = load ptr, ptr %79, align 8, !tbaa !61
  %81 = getelementptr inbounds nuw i8, ptr %1, i64 388
  %82 = load i32, ptr %81, align 4, !tbaa !62
  tail call void %76(ptr noundef %78, ptr noundef %80, i32 noundef %12, i32 noundef %82, double noundef %64) #11
  br label %123

83:                                               ; preds = %55
  %84 = sext i32 %12 to i64
  %85 = add nsw i64 %19, %84
  %86 = icmp slt i64 %85, %57
  br i1 %86, label %92, label %104

87:                                               ; preds = %49
  %88 = getelementptr inbounds nuw i8, ptr %7, i64 24
  %89 = load i64, ptr %88, align 8, !tbaa !20
  %90 = add nsw i64 %89, %53
  %91 = icmp slt i64 %90, %19
  br i1 %91, label %92, label %102

92:                                               ; preds = %87, %83
  %93 = getelementptr inbounds nuw i8, ptr %7, i64 104
  %94 = load ptr, ptr %93, align 8, !tbaa !39
  %95 = getelementptr inbounds nuw i8, ptr %.066, i64 96
  %96 = load ptr, ptr %95, align 8, !tbaa !61
  %97 = getelementptr inbounds nuw i8, ptr %1, i64 96
  %98 = load ptr, ptr %97, align 8, !tbaa !61
  %99 = getelementptr inbounds nuw i8, ptr %1, i64 388
  %100 = load i32, ptr %99, align 4, !tbaa !62
  %101 = load double, ptr %20, align 8, !tbaa !67
  tail call void %94(ptr noundef %96, ptr noundef %98, i32 noundef %12, i32 noundef %100, double noundef %101) #11
  br label %123

102:                                              ; preds = %87
  %103 = sub nsw i64 %19, %53
  br label %107

104:                                              ; preds = %83
  %105 = sub i64 %57, %19
  %106 = add i64 %105, %59
  br label %107

107:                                              ; preds = %104, %102
  %108 = phi i64 [ %59, %104 ], [ %89, %102 ]
  %109 = phi i32 [ -1, %104 ], [ 1, %102 ]
  %.0 = phi i64 [ %106, %104 ], [ %103, %102 ]
  %110 = getelementptr inbounds nuw i8, ptr %7, i64 96
  %111 = load ptr, ptr %110, align 8, !tbaa !38
  %112 = getelementptr inbounds nuw i8, ptr %.066, i64 96
  %113 = load ptr, ptr %112, align 8, !tbaa !61
  %114 = getelementptr inbounds nuw i8, ptr %1, i64 96
  %115 = load ptr, ptr %114, align 8, !tbaa !61
  %116 = getelementptr inbounds nuw i8, ptr %1, i64 388
  %117 = load i32, ptr %116, align 4, !tbaa !62
  %118 = getelementptr inbounds nuw i8, ptr %7, i64 12
  %119 = load i32, ptr %118, align 4, !tbaa !63
  %120 = getelementptr inbounds nuw i8, ptr %7, i64 56
  %121 = load double, ptr %120, align 8, !tbaa !69
  %122 = load double, ptr %20, align 8, !tbaa !67
  tail call void %111(ptr noundef %113, ptr noundef %115, i32 noundef %12, i32 noundef %117, i32 noundef %109, i64 noundef %.0, i64 noundef %108, i32 noundef %119, double noundef %121, double noundef %122) #11
  br label %123

123:                                              ; preds = %92, %107, %66, %74
  %.not78 = icmp eq ptr %1, %.066
  br i1 %.not78, label %125, label %124

124:                                              ; preds = %123
  call void @av_frame_free(ptr noundef nonnull %3) #11
  br label %125

125:                                              ; preds = %124, %123
  %126 = call i32 @ff_filter_frame(ptr noundef %10, ptr noundef nonnull %.066) #11
  br label %127

127:                                              ; preds = %42, %125, %39
  %.065 = phi i32 [ %40, %39 ], [ %126, %125 ], [ -12, %42 ]
  ret i32 %.065
}